target datalayout = "e-m:e-p270:32:32-p271:32:32-p272:64:64-i64:64-i128:128-f80:128-n8:16:32:64-S128"
target triple = "x86_64-pc-linux-gnu"

%union.pthread_mutex_t = type { %struct.__pthread_mutex_s }
%struct.__pthread_mutex_s = type { i32, i32, i32, i32, i32, i16, i16, %struct.__pthread_internal_list }
%struct.__pthread_internal_list = type { ptr, ptr }
%struct.slurmdbd_conn_t = type { ptr, ptr, %union.pthread_mutex_t, ptr, ptr }
%struct.persist_conn_t = type { ptr, i32, i32, i8, ptr, ptr, ptr, i64, i16, i32, i16, i8, i32, i32, ptr, i16, ptr, i64, i32, ptr, %struct.slurm_trigger_callbacks_t, i16 }
%struct.slurm_trigger_callbacks_t = type { ptr, ptr, ptr, ptr, ptr }
%struct.persist_msg_t = type { ptr, ptr, i16 }
%struct.slurmdbd_conf_t = type { ptr, ptr, i16, ptr, ptr, ptr, i16, i16, ptr, i32, ptr, i32, ptr, i16, ptr, i32, i32, i32, i32, i32, i32, i32, ptr, i16, i16, i16 }
%struct.dbd_fini_msg = type { i16, i16 }

@slurmdbd_conf = external global ptr, align 8
@.str.7 = private unnamed_addr constant [29 x i8] c"%s: pthread_mutex_lock(): %m\00", align 1
@.str.9 = private unnamed_addr constant [31 x i8] c"%s: pthread_mutex_unlock(): %m\00", align 1
@registered_lock = external global %union.pthread_mutex_t, align 8
@.str.84 = private unnamed_addr constant [29 x i8] c"DBD_FINI: CLOSE:%u COMMIT:%u\00", align 1
@__func__._fini_conn = private unnamed_addr constant [11 x i8] c"_fini_conn\00", align 1

; Function Attrs: nounwind uwtable
define internal i32 @_fini_conn(ptr noundef %0, ptr noundef %1, ptr noundef %2) #0 {
  %4 = alloca ptr, align 8
  %5 = alloca ptr, align 8
  %6 = alloca ptr, align 8
  %7 = alloca ptr, align 8
  %8 = alloca ptr, align 8
  %9 = alloca i32, align 4
  %10 = alloca i8, align 1
  %11 = alloca i32, align 4
  %12 = alloca i32, align 4
  store ptr %0, ptr %4, align 8
  store ptr %1, ptr %5, align 8
  store ptr %2, ptr %6, align 8
  call void @llvm.lifetime.start.p0(i64 8, ptr %7) #8
  %13 = load ptr, ptr %5, align 8
  %14 = getelementptr inbounds nuw %struct.persist_msg_t, ptr %13, i32 0, i32 1
  %15 = load ptr, ptr %14, align 8
  store ptr %15, ptr %7, align 8
  call void @llvm.lifetime.start.p0(i64 8, ptr %8) #8
  store ptr null, ptr %8, align 8
  call void @llvm.lifetime.start.p0(i64 4, ptr %9) #8
  store i32 0, ptr %9, align 4
  call void @llvm.lifetime.start.p0(i64 1, ptr %10) #8
  store i8 0, ptr %10, align 1
  br label %16

16:                                               ; preds = %3
  br label %17

17:                                               ; preds = %16
  %18 = call i32 @get_log_level()
  %19 = icmp sge i32 %18, 6
  br i1 %19, label %20, label %29

20:                                               ; preds = %17
  %21 = load ptr, ptr %7, align 8
  %22 = getelementptr inbounds nuw %struct.dbd_fini_msg, ptr %21, i32 0, i32 0
  %23 = load i16, ptr %22, align 2
  %24 = zext i16 %23 to i32
  %25 = load ptr, ptr %7, align 8
  %26 = getelementptr inbounds nuw %struct.dbd_fini_msg, ptr %25, i32 0, i32 1
  %27 = load i16, ptr %26, align 2
  %28 = zext i16 %27 to i32
  call void (i32, ptr, ...) @log_var(i32 noundef 6, ptr noundef @.str.84, i32 noundef %24, i32 noundef %28)
  br label %29

29:                                               ; preds = %20, %17
  br label %30

30:                                               ; preds = %29
  br label %31

31:                                               ; preds = %30
  br label %32

32:                                               ; preds = %31
  br label %33

33:                                               ; preds = %32
  %34 = load ptr, ptr %4, align 8
  %35 = getelementptr inbounds nuw %struct.slurmdbd_conn_t, ptr %34, i32 0, i32 0
  %36 = load ptr, ptr %35, align 8
  %37 = getelementptr inbounds nuw %struct.persist_conn_t, ptr %36, i32 0, i32 15
  %38 = load i16, ptr %37, align 8
  %39 = zext i16 %38 to i32
  %40 = icmp ne i32 %39, 0
  br i1 %40, label %41, label %58

41:                                               ; preds = %33
  %42 = load ptr, ptr @slurmdbd_conf, align 8
  %43 = getelementptr inbounds nuw %struct.slurmdbd_conf_t, ptr %42, i32 0, i32 2
  %44 = load i16, ptr %43, align 8
  %45 = zext i16 %44 to i32
  %46 = icmp ne i32 %45, 0
  br i1 %46, label %47, label %58

47:                                               ; preds = %41
  br label %48

48:                                               ; preds = %47
  call void @llvm.lifetime.start.p0(i64 4, ptr %11) #8
  %49 = call i32 @pthread_mutex_lock(ptr noundef @registered_lock) #8
  store i32 %49, ptr %11, align 4
  %50 = load i32, ptr %11, align 4
  %51 = icmp ne i32 %50, 0
  br i1 %51, label %52, label %55

52:                                               ; preds = %48
  %53 = load i32, ptr %11, align 4
  %54 = call ptr @__errno_location() #10
  store i32 %53, ptr %54, align 4
  call void (ptr, ...) @fatal_abort(ptr noundef @.str.7, ptr noundef @__func__._fini_conn) #9
  unreachable

55:                                               ; preds = %48
  call void @llvm.lifetime.end.p0(i64 4, ptr %11) #8
  br label %56

56:                                               ; preds = %55
  br label %57

57:                                               ; preds = %56
  store i8 1, ptr %10, align 1
  br label %58

58:                                               ; preds = %57, %41, %33
  %59 = load ptr, ptr %7, align 8
  %60 = getelementptr inbounds nuw %struct.dbd_fini_msg, ptr %59, i32 0, i32 0
  %61 = load i16, ptr %60, align 2
  %62 = zext i16 %61 to i32
  %63 = icmp eq i32 %62, 1
  br i1 %63, label %64, label %68

64:                                               ; preds = %58
  %65 = load ptr, ptr %4, align 8
  %66 = getelementptr inbounds nuw %struct.slurmdbd_conn_t, ptr %65, i32 0, i32 3
  %67 = call i32 @acct_storage_g_close_connection(ptr noundef %66)
  store i32 %67, ptr %9, align 4
  br label %77

68:                                               ; preds = %58
  %69 = load ptr, ptr %4, align 8
  %70 = getelementptr inbounds nuw %struct.slurmdbd_conn_t, ptr %69, i32 0, i32 3
  %71 = load ptr, ptr %70, align 8
  %72 = load ptr, ptr %7, align 8
  %73 = getelementptr inbounds nuw %struct.dbd_fini_msg, ptr %72, i32 0, i32 1
  %74 = load i16, ptr %73, align 2
  %75 = icmp ne i16 %74, 0
  %76 = call i32 @acct_storage_g_commit(ptr noundef %71, i1 noundef zeroext %75)
  store i32 %76, ptr %9, align 4
  br label %77

77:                                               ; preds = %68, %64
  %78 = load i8, ptr %10, align 1, !range !8, !noundef !9
  %79 = trunc i8 %78 to i1
  br i1 %79, label %80, label %91

80:                                               ; preds = %77
  br label %81

81:                                               ; preds = %80
  call void @llvm.lifetime.start.p0(i64 4, ptr %12) #8
  %82 = call i32 @pthread_mutex_unlock(ptr noundef @registered_lock) #8
  store i32 %82, ptr %12, align 4
  %83 = load i32, ptr %12, align 4
  %84 = icmp ne i32 %83, 0
  br i1 %84, label %85, label %88

85:                                               ; preds = %81
  %86 = load i32, ptr %12, align 4
  %87 = call ptr @__errno_location() #10
  store i32 %86, ptr %87, align 4
  call void (ptr, ...) @fatal_abort(ptr noundef @.str.9, ptr noundef @__func__._fini_conn) #9
  unreachable

88:                                               ; preds = %81
  call void @llvm.lifetime.end.p0(i64 4, ptr %12) #8
  br label %89

89:                                               ; preds = %88
  br label %90

90:                                               ; preds = %89
  br label %91

91:                                               ; preds = %90, %77
  %92 = load ptr, ptr %4, align 8
  %93 = getelementptr inbounds nuw %struct.slurmdbd_conn_t, ptr %92, i32 0, i32 0
  %94 = load ptr, ptr %93, align 8
  %95 = load i32, ptr %9, align 4
  %96 = load ptr, ptr %8, align 8
  %97 = call ptr @slurm_persist_make_rc_msg(ptr noundef %94, i32 noundef %95, ptr noundef %96, i16 noundef zeroext 1401)
  %98 = load ptr, ptr %6, align 8
  store ptr %97, ptr %98, align 8
  %99 = load i32, ptr %9, align 4
  call void @llvm.lifetime.end.p0(i64 1, ptr %10) #8
  call void @llvm.lifetime.end.p0(i64 4, ptr %9) #8
  call void @llvm.lifetime.end.p0(i64 8, ptr %8) #8
  call void @llvm.lifetime.end.p0(i64 8, ptr %7) #8
  ret i32 %99
}