; Function Attrs: nounwind uwtable
define internal fastcc i32 @_fini_conn(ptr noundef %0, ptr readonly captures(none) %.8.val, ptr noundef writeonly captures(none) %1) unnamed_addr #0 {
  %3 = tail call i32 @get_log_level() #10
  %4 = icmp sgt i32 %3, 5
  br i1 %4, label %5, label %11

5:                                                ; preds = %2
  %6 = load i16, ptr %.8.val, align 2
  %7 = zext i16 %6 to i32
  %8 = getelementptr inbounds nuw i8, ptr %.8.val, i64 2
  %9 = load i16, ptr %8, align 2
  %10 = zext i16 %9 to i32
  tail call void (i32, ptr, ...) @log_var(i32 noundef 6, ptr noundef nonnull @.str.84, i32 noundef %7, i32 noundef %10) #10
  br label %11

11:                                               ; preds = %5, %2
  %12 = load ptr, ptr %0, align 8
  %13 = getelementptr inbounds nuw i8, ptr %12, i64 88
  %14 = load i16, ptr %13, align 8
  %.not = icmp eq i16 %14, 0
  br i1 %.not, label %23, label %15

15:                                               ; preds = %11
  %16 = load ptr, ptr @slurmdbd_conf, align 8
  %17 = getelementptr inbounds nuw i8, ptr %16, i64 16
  %18 = load i16, ptr %17, align 8
  %.not20 = icmp eq i16 %18, 0
  br i1 %.not20, label %23, label %19

19:                                               ; preds = %15
  %20 = tail call i32 @pthread_mutex_lock(ptr noundef nonnull @registered_lock) #10
  %.not21 = icmp eq i32 %20, 0
  br i1 %.not21, label %23, label %21

21:                                               ; preds = %19
  %22 = tail call ptr @__errno_location() #12
  store i32 %20, ptr %22, align 4
  tail call void (ptr, ...) @fatal_abort(ptr noundef nonnull @.str.7, ptr noundef nonnull @__func__._fini_conn) #11
  unreachable

23:                                               ; preds = %19, %15, %11
  %.017 = phi i1 [ false, %15 ], [ false, %11 ], [ true, %19 ]
  %24 = load i16, ptr %.8.val, align 2
  %25 = icmp eq i16 %24, 1
  %26 = getelementptr inbounds nuw i8, ptr %0, i64 56
  br i1 %25, label %27, label %29

27:                                               ; preds = %23
  %28 = tail call i32 @acct_storage_g_close_connection(ptr noundef nonnull %26) #10
  br label %35

29:                                               ; preds = %23
  %30 = load ptr, ptr %26, align 8
  %31 = getelementptr inbounds nuw i8, ptr %.8.val, i64 2
  %32 = load i16, ptr %31, align 2
  %33 = icmp ne i16 %32, 0
  %34 = tail call i32 @acct_storage_g_commit(ptr noundef %30, i1 noundef zeroext %33) #10
  br label %35

35:                                               ; preds = %29, %27
  %.0 = phi i32 [ %28, %27 ], [ %34, %29 ]
  br i1 %.017, label %36, label %40

36:                                               ; preds = %35
  %37 = tail call i32 @pthread_mutex_unlock(ptr noundef nonnull @registered_lock) #10
  %.not22 = icmp eq i32 %37, 0
  br i1 %.not22, label %40, label %38

38:                                               ; preds = %36
  %39 = tail call ptr @__errno_location() #12
  store i32 %37, ptr %39, align 4
  tail call void (ptr, ...) @fatal_abort(ptr noundef nonnull @.str.9, ptr noundef nonnull @__func__._fini_conn) #11
  unreachable

40:                                               ; preds = %36, %35
  %41 = load ptr, ptr %0, align 8
  %42 = tail call ptr @slurm_persist_make_rc_msg(ptr noundef %41, i32 noundef %.0, ptr noundef null, i16 noundef zeroext 1401) #10
  store ptr %42, ptr %1, align 8
  ret i32 %.0
}